; Function Attrs: mustprogress uwtable
define void @_ZN7rocksdb15SanitizeOptionsERKNSt7__cxx1112basic_stringIcSt11char_traitsIcESaIcEEERKNS_7OptionsEbPNS_6StatusE(ptr dead_on_unwind noalias writable sret(%"struct.rocksdb::Options") align 8 %0, ptr noundef nonnull align 8 dereferenceable(32) %1, ptr noundef nonnull align 8 dereferenceable(1544) %2, i1 noundef zeroext %3, ptr noundef %4) local_unnamed_addr #4 personality ptr @__gxx_personality_v0 {
  %6 = alloca %"struct.rocksdb::DBOptions", align 8
  %7 = alloca %"struct.rocksdb::DBOptions", align 8
  %8 = alloca %"struct.rocksdb::ImmutableDBOptions", align 8
  %9 = alloca %"struct.rocksdb::ColumnFamilyOptions", align 8
  %10 = alloca %"struct.rocksdb::ColumnFamilyOptions", align 8
  call void @llvm.lifetime.start.p0(i64 712, ptr nonnull %6) #27
  call void @llvm.lifetime.start.p0(i64 712, ptr nonnull %7) #27
  call void @_ZN7rocksdb9DBOptionsC1ERKNS_7OptionsE(ptr noundef nonnull align 8 dereferenceable(706) %7, ptr noundef nonnull align 8 dereferenceable(1544) %2)
  invoke void @_ZN7rocksdb15SanitizeOptionsERKNSt7__cxx1112basic_stringIcSt11char_traitsIcESaIcEEERKNS_9DBOptionsEbPNS_6StatusE(ptr dead_on_unwind nonnull writable sret(%"struct.rocksdb::DBOptions") align 8 %6, ptr noundef nonnull align 8 dereferenceable(32) %1, ptr noundef nonnull align 8 dereferenceable(706) %7, i1 noundef zeroext %3, ptr noundef %4)
          to label %11 unwind label %18

11:                                               ; preds = %5
  call void @_ZN7rocksdb9DBOptionsD2Ev(ptr noundef nonnull align 8 dereferenceable(706) %7) #27
  call void @llvm.lifetime.end.p0(i64 712, ptr nonnull %7) #27
  call void @llvm.lifetime.start.p0(i64 600, ptr nonnull %8) #27
  invoke void @_ZN7rocksdb18ImmutableDBOptionsC1ERKNS_9DBOptionsE(ptr noundef nonnull align 8 dereferenceable(600) %8, ptr noundef nonnull align 8 dereferenceable(706) %6)
          to label %12 unwind label %20

12:                                               ; preds = %11
  call void @llvm.lifetime.start.p0(i64 832, ptr nonnull %9) #27
  call void @llvm.lifetime.start.p0(i64 832, ptr nonnull %10) #27
  invoke void @_ZN7rocksdb19ColumnFamilyOptionsC1ERKNS_7OptionsE(ptr noundef nonnull align 8 dereferenceable(832) %10, ptr noundef nonnull align 8 dereferenceable(1544) %2)
          to label %13 unwind label %22

13:                                               ; preds = %12
  invoke void @_ZN7rocksdb15SanitizeOptionsERKNS_18ImmutableDBOptionsERKNS_19ColumnFamilyOptionsE(ptr dead_on_unwind nonnull writable sret(%"struct.rocksdb::ColumnFamilyOptions") align 8 %9, ptr noundef nonnull align 8 dereferenceable(600) %8, ptr noundef nonnull align 8 dereferenceable(832) %10)
          to label %14 unwind label %24

14:                                               ; preds = %13
  call void @_ZN7rocksdb19ColumnFamilyOptionsD2Ev(ptr noundef nonnull align 8 dereferenceable(832) %10) #27
  call void @llvm.lifetime.end.p0(i64 832, ptr nonnull %10) #27
  invoke void @_ZN7rocksdb9DBOptionsC2ERKS0_(ptr noundef nonnull align 8 dereferenceable(1544) %0, ptr noundef nonnull align 8 dereferenceable(706) %6)
          to label %.noexc unwind label %27

.noexc:                                           ; preds = %14
  %15 = getelementptr inbounds nuw i8, ptr %0, i64 712
  invoke void @_ZN7rocksdb19ColumnFamilyOptionsC2ERKS0_(ptr noundef nonnull align 8 dereferenceable(832) %15, ptr noundef nonnull align 8 dereferenceable(832) %9)
          to label %_ZN7rocksdb7OptionsC2ERKNS_9DBOptionsERKNS_19ColumnFamilyOptionsE.exit unwind label %16

16:                                               ; preds = %.noexc
  %17 = landingpad { ptr, i32 }
          cleanup
  call void @_ZN7rocksdb9DBOptionsD2Ev(ptr noundef nonnull align 8 dereferenceable(1544) %0) #27
  br label %.body

_ZN7rocksdb7OptionsC2ERKNS_9DBOptionsERKNS_19ColumnFamilyOptionsE.exit: ; preds = %.noexc
  call void @_ZN7rocksdb19ColumnFamilyOptionsD2Ev(ptr noundef nonnull align 8 dereferenceable(832) %9) #27
  call void @llvm.lifetime.end.p0(i64 832, ptr nonnull %9) #27
  call void @_ZN7rocksdb18ImmutableDBOptionsD2Ev(ptr noundef nonnull align 8 dereferenceable(600) %8) #27
  call void @llvm.lifetime.end.p0(i64 600, ptr nonnull %8) #27
  call void @_ZN7rocksdb9DBOptionsD2Ev(ptr noundef nonnull align 8 dereferenceable(706) %6) #27
  call void @llvm.lifetime.end.p0(i64 712, ptr nonnull %6) #27
  ret void

18:                                               ; preds = %5
  %19 = landingpad { ptr, i32 }
          cleanup
  call void @_ZN7rocksdb9DBOptionsD2Ev(ptr noundef nonnull align 8 dereferenceable(706) %7) #27
  call void @llvm.lifetime.end.p0(i64 712, ptr nonnull %7) #27
  br label %31

20:                                               ; preds = %11
  %21 = landingpad { ptr, i32 }
          cleanup
  br label %30

22:                                               ; preds = %12
  %23 = landingpad { ptr, i32 }
          cleanup
  br label %26

24:                                               ; preds = %13
  %25 = landingpad { ptr, i32 }
          cleanup
  call void @_ZN7rocksdb19ColumnFamilyOptionsD2Ev(ptr noundef nonnull align 8 dereferenceable(832) %10) #27
  br label %26

26:                                               ; preds = %24, %22
  %.pn = phi { ptr, i32 } [ %25, %24 ], [ %23, %22 ]
  call void @llvm.lifetime.end.p0(i64 832, ptr nonnull %10) #27
  br label %29

27:                                               ; preds = %14
  %28 = landingpad { ptr, i32 }
          cleanup
  br label %.body

.body:                                            ; preds = %16, %27
  %eh.lpad-body = phi { ptr, i32 } [ %28, %27 ], [ %17, %16 ]
  call void @_ZN7rocksdb19ColumnFamilyOptionsD2Ev(ptr noundef nonnull align 8 dereferenceable(832) %9) #27
  br label %29

29:                                               ; preds = %.body, %26
  %.pn11 = phi { ptr, i32 } [ %eh.lpad-body, %.body ], [ %.pn, %26 ]
  call void @llvm.lifetime.end.p0(i64 832, ptr nonnull %9) #27
  call void @_ZN7rocksdb18ImmutableDBOptionsD2Ev(ptr noundef nonnull align 8 dereferenceable(600) %8) #27
  br label %30

30:                                               ; preds = %29, %20
  %.pn11.pn = phi { ptr, i32 } [ %.pn11, %29 ], [ %21, %20 ]
  call void @llvm.lifetime.end.p0(i64 600, ptr nonnull %8) #27
  call void @_ZN7rocksdb9DBOptionsD2Ev(ptr noundef nonnull align 8 dereferenceable(706) %6) #27
  br label %31

31:                                               ; preds = %30, %18
  %.pn11.pn.pn = phi { ptr, i32 } [ %.pn11.pn, %30 ], [ %19, %18 ]
  call void @llvm.lifetime.end.p0(i64 712, ptr nonnull %6) #27
  resume { ptr, i32 } %.pn11.pn.pn
}